((dp0
S'game-icf'
p1
S''
p2
sS'dist'
p3
NsS'module_path_append'
p4
NsS'global_path'
p5
S'i:\\program files\\marmalade\\6.3\\examples\\edk'
p6
sS'system_path'
p7
S'i:\\program files\\marmalade\\6.3\\s3e\\makefile_builder'
p8
sS'use_prebuilt'
p9
NsS'amd64'
p10
NsS'line-width'
p11
I80
sS'android-x86'
p12
NsS'disable-runtime-checks'
p13
NsS'release'
p14
NsS'no-make'
p15
NsS'optimise-size'
p16
NsS'output-name-debug'
p17
S'lib/win32/Cursor_d.dll'
p18
sS'arm-fpu'
p19
g2
sS'psp'
p20
NsS'rvct-version'
p21
S'none'
p22
sS'compiler'
p23
g2
sS'execute'
p24
NsS'compile-static'
p25
NsS'msvc-project'
p26
NsS'buildenv'
p27
g2
sS'debug'
p28
NsS'module_path'
p29
NsS'use-release-std-libs'
p30
NsS'using_perforce'
p31
I00
sS'mips-s3e'
p32
NsS'shared-arm-lib'
p33
NsS'arm-cpu'
p34
g2
sS'compile-thumb'
p35
NsS'no-ide'
p36
NsS'msvc-version'
p37
S'6.0'
p38
sS'arm'
p39
NsS'builddir'
p40
g2
sS'compile-debug-as-release'
p41
I0
sS'brief'
p42
NsS'dll'
p43
I1
sS'buildenv-toolset'
p44
g2
sS'version'
p45
NsS'ccache'
p46
I0
sS'offline'
p47
NsS'ios-version'
p48
g2
sS'jobs'
p49
I0
sS'linkflags'
p50
NsS'quick'
p51
NsS'done_defaults'
p52
I1
sS'path'
p53
NsS's3e-data-dir'
p54
g2
sS'enable-exceptions'
p55
NsS'osx-dll'
p56
NsS'extension'
p57
g2
sS'no-vc6'
p58
NsS'non-interactive'
p59
NsS'win32-console'
p60
NsS'nds'
p61
NsS'dist-format'
p62
g2
sS's3e-force-arch'
p63
NsS'dump_defines'
p64
NsS'verbose'
p65
I0
sS'psp-minis'
p66
NsS'gcc-version'
p67
g2
sS'arm-debugger'
p68
g2
sS'use_temp_extension'
p69
NsS'log'
p70
NsS'no-strip'
p71
NsS'rebuild'
p72
NsS'win32-simulator-dll'
p73
NsS'strict'
p74
NsS'enable-global-path'
p75
NsS'iphone'
p76
NsS'cflags'
p77
NsS'dist-dir'
p78
g2
sS'jflags'
p79
NsS'distcc'
p80
NsS'external-compiler'
p81
NsS'no-distcc'
p82
NsS'preinclude'
p83
NsS'using_sdk'
p84
I01
sS'nologo'
p85
NsS'warn-level'
p86
I2
sS'mkb_in'
p87
S'i:/Program Files/Marmalade/6.3/examples/EDK/Cursor/Cursor_windows.mkb'
p88
sS'test-config'
p89
g2
sS'list-targets'
p90
NsS'makedeps'
p91
NsS'default-buildenv'
p92
S'VC10'
p93
sS'preprocess-java'
p94
NsS'defines'
p95
NsS'lib'
p96
NsS'global_argv'
p97
(lp98
S'I:\\Program Files\\Marmalade\\6.3\\s3e\\makefile_builder\\mkb.py'
p99
aS'I:\\Program Files\\Marmalade\\6.3\\examples\\EDK\\Cursor\\Cursor_windows.mkb'
p100
asS'make'
p101
NsS'optimise-speed'
p102
NsS'internal'
p103
NsS'enable-stdinc'
p104
NsS'deploy-only'
p105
NsS'x86'
p106
I1
sS'deploy'
p107
g2
sS'mips'
p108
NsS'incredibuild'
p109
NsS'strict-compile'
p110
NsS'use-auto-subdirs'
p111
NsS'app-icf'
p112
g2
sS'deployargs'
p113
NsS'mkf_in'
p114
(lp115
S'i:\\program files\\marmalade\\6.3\\examples\\edk\\cursor\\cursor_build.mkf'
p116
aS'i:\\program files\\marmalade\\6.3\\s3e\\edk\\edk.mkf'
p117
asS'strict-mkb'
p118
NsS'executeargs'
p119
NsS'clean'
p120
NsS'no-asm'
p121
NsS'output-name'
p122
S'lib/win32/Cursor.dll'
p123
sS'no-modules'
p124
NsS'find_define'
p125
g2
s(dp126
S'i:\\program files\\marmalade\\6.3\\s3e\\makefile_builder\\templates\\xcode4_DeployTool.xcscheme'
p127
F1369749906.0
sS'i:\\program files\\marmalade\\6.3\\s3e\\makefile_builder\\plugins\\MakeEmitter.pyc'
p128
F1369762920.0
sS'i:\\program files\\marmalade\\6.3\\s3e\\makefile_builder\\plugins\\s3e_xcode.pyc'
p129
F1370640446.46875
sS'i:\\program files\\marmalade\\6.3\\s3e\\makefile_builder\\plugins\\SConsEmitter.pyc'
p130
F1369762920.0
sS'i:\\program files\\marmalade\\6.3\\s3e\\makefile_builder\\templates\\gdb_start.txt'
p131
F1369749906.0
sS'i:\\program files\\marmalade\\6.3\\s3e\\makefile_builder\\docs\\options.txt'
p132
F1369749904.0
sS'i:\\program files\\marmalade\\6.3\\s3e\\makefile_builder\\plugins\\s3e_qmake.pyc'
p133
F1370640446.390625
sS'i:\\program files\\marmalade\\6.3\\s3e\\makefile_builder\\templates\\template.opt'
p134
F1369749906.0
sS'i:\\program files\\marmalade\\6.3\\s3e\\makefile_builder\\templates\\make.py'
p135
F1369749906.0
sS'i:\\program files\\marmalade\\6.3\\s3e\\makefile_builder\\mkb_main.pyc'
p136
F1369762920.0
sS'i:\\program files\\marmalade\\6.3\\s3e\\makefile_builder\\docs'
p137
F1370640102.40625
sS'i:\\program files\\marmalade\\6.3\\s3e\\makefile_builder\\templates\\scons.pyc'
p138
F1369762922.0
sS'i:\\program files\\marmalade\\6.3\\s3e\\makefile_builder\\docs\\deprecated.defines.txt'
p139
F1369749904.0
sS'i:\\program files\\marmalade\\6.3\\s3e\\makefile_builder\\templates'
p140
F1370640102.375
sS'i:\\program files\\marmalade\\6.3\\s3e\\makefile_builder\\plugins\\vc7_utils.pyc'
p141
F1369762920.0
sS'i:\\program files\\marmalade\\6.3\\s3e\\makefile_builder\\templates\\template.suo'
p142
F1369749906.0
sS'i:\\program files\\marmalade\\6.3\\s3e\\makefile_builder\\mkb_parser.pyc'
p143
F1369762920.0
sS'i:\\program files\\marmalade\\6.3\\s3e\\makefile_builder\\templates\\rvct_linker_script'
p144
F1369749906.0
sS'i:\\program files\\marmalade\\6.3\\s3e\\makefile_builder\\templates\\qmake_user.py'
p145
F1369749906.0
sS'i:\\program files\\marmalade\\6.3\\s3e\\makefile_builder\\templates\\win32_sln.pyc'
p146
F1369762922.0
sS'i:\\program files\\marmalade\\6.3\\s3e\\makefile_builder\\templates\\vc10_user.pyc'
p147
F1369762922.0
sS'i:\\program files\\marmalade\\6.3\\s3e\\makefile_builder\\templates\\wp8_vcxproj.pyc'
p148
F1369762922.0
sS'i:\\program files\\marmalade\\6.3\\s3e\\makefile_builder\\plugins\\s3e_web.pyc'
p149
F1369762920.0
sS'i:\\program files\\marmalade\\6.3\\s3e\\makefile_builder\\templates\\win32_dsw.pyc'
p150
F1369762920.0
sS'i:\\program files\\marmalade\\6.3\\s3e\\makefile_builder\\docs\\parse_options.pyc'
p151
F1369762922.0
sS'i:\\program files\\marmalade\\6.3\\s3e\\makefile_builder\\plugins\\null.pyc'
p152
F1369762920.0
sS'i:\\program files\\marmalade\\6.3\\s3e\\makefile_builder\\plugins\\s3e_make.pyc'
p153
F1369762920.0
sS'i:\\program files\\marmalade\\6.3\\s3e\\makefile_builder\\templates\\xcode4.xcscheme'
p154
F1369749906.0
sS'i:\\program files\\marmalade\\6.3\\s3e\\makefile_builder\\templates\\wp8_csproj.pyc'
p155
F1369762922.0
sS'i:\\program files\\marmalade\\6.3\\s3e\\makefile_builder\\plugins\\XcodeEmitter.py'
p156
F1369749904.0
sS'i:\\program files\\marmalade\\6.3\\s3e\\makefile_builder\\plugins\\s3e_vc6.pyc'
p157
F1369762920.0
sS'i:\\program files\\marmalade\\6.3\\s3e\\makefile_builder\\plugins'
p158
F1370640446.46875
sS'i:\\program files\\marmalade\\6.3\\s3e\\makefile_builder\\docs\\mkb.defines.txt'
p159
F1369749904.0
sS'i:\\program files\\marmalade\\6.3\\s3e\\makefile_builder\\plugins\\s3e_wp8.pyc'
p160
F1369762920.0
sS'i:\\program files\\marmalade\\6.3\\s3e\\makefile_builder\\plugins\\s3e_scons.pyc'
p161
F1369762920.0
sS'i:\\program files\\marmalade\\6.3\\s3e\\makefile_builder\\templates\\win32_vcxproj.pyc'
p162
F1369762922.0
sS'i:\\program files\\marmalade\\6.3\\s3e\\makefile_builder\\extensions'
p163
F1370640102.390625
sS'i:\\program files\\marmalade\\6.3\\s3e\\makefile_builder\\plugins\\deploy.pyc'
p164
F1369762920.0
sS'i:\\program files\\marmalade\\6.3\\s3e\\makefile_builder\\plugins\\linux_scons.pyc'
p165
F1369762920.0
sS'i:\\program files\\marmalade\\6.3\\s3e\\makefile_builder\\templates\\linker_script'
p166
F1369749906.0
sS'i:\\program files\\marmalade\\6.3\\s3e\\makefile_builder\\plugins\\vc6_utils.pyc'
p167
F1369762920.0
sS'i:\\program files\\marmalade\\6.3\\s3e\\makefile_builder\\templates\\vc6_opt.pyc'
p168
F1369762920.0
sS'i:\\program files\\marmalade\\6.3\\s3e\\makefile_builder\\templates\\qmake.py'
p169
F1369749906.0
sS'i:\\program files\\marmalade\\6.3\\s3e\\makefile_builder\\templates\\wp8_sln.pyc'
p170
F1369762922.0
sS'i:\\program files\\marmalade\\6.3\\s3e\\makefile_builder\\plugins\\java.pyc'
p171
F1369762920.0
sS'i:\\program files\\marmalade\\6.3\\s3e\\makefile_builder\\mkb_launcher.exe'
p172
F1369752952.0
sS'i:\\program files\\marmalade\\6.3\\s3e\\makefile_builder\\plugins\\S3EEmitter.pyc'
p173
F1369762920.0
sS'i:\\program files\\marmalade\\6.3\\s3e\\makefile_builder\\templates\\win32_dsp.pyc'
p174
F1369762920.0
sS'i:\\program files\\marmalade\\6.3\\s3e\\makefile_builder\\mkb.py'
p175
F1369749904.0
sS'i:\\program files\\marmalade\\6.3\\s3e\\makefile_builder\\templates\\Info.plist'
p176
F1369749906.0
sS'i:\\program files\\marmalade\\6.3\\s3e\\makefile_builder\\docs\\deployment_options.txt'
p177
F1369749904.0
sS'i:\\program files\\marmalade\\6.3\\s3e\\makefile_builder\\templates\\vc8_user.pyc'
p178
F1369762922.0
sS'i:\\program files\\marmalade\\6.3\\s3e\\makefile_builder\\templates\\mips_linker_script'
p179
F1369749906.0
sS'i:\\program files\\marmalade\\6.3\\s3e\\makefile_builder\\plugins\\iphone.pyc'
p180
F1369762920.0
sS'i:\\program files\\marmalade\\6.3\\s3e\\makefile_builder\\plugins\\wp8_wp8.pyc'
p181
F1369762920.0
sS'i:\\program files\\marmalade\\6.3\\s3e\\makefile_builder\\tool_launcher.exe'
p182
F1369752954.0
sS'i:\\program files\\marmalade\\6.3\\s3e\\makefile_builder\\plugins\\osx_xcode.pyc'
p183
F1369762920.0
sS'i:\\program files\\marmalade\\6.3\\s3e\\makefile_builder\\mkb_globals.pyc'
p184
F1369762920.0
sS'i:\\program files\\marmalade\\6.3\\s3e\\makefile_builder\\templates\\xcode.py'
p185
F1369749906.0
sS'i:\\program files\\marmalade\\6.3\\s3e\\makefile_builder\\docs\\deprecated.options.txt'
p186
F1369749904.0
sS'i:\\program files\\marmalade\\6.3\\s3e\\makefile_builder\\templates\\MainWindow.xib'
p187
F1369749906.0
sS'i:\\program files\\marmalade\\6.3\\s3e\\makefile_builder\\plugins\\xcode4_schememanagement.pyc'
p188
F1370640446.359375
sS'i:\\program files\\marmalade\\6.3\\s3e\\makefile_builder\\mkb_util.pyc'
p189
F1369762920.0
sS'i:\\program files\\marmalade\\6.3\\s3e\\makefile_builder\\templates\\vc7_suo.pyc'
p190
F1369762922.0
sS'i:\\program files\\marmalade\\6.3\\s3e\\makefile_builder\\templates\\xcode_pbxuser.py'
p191
F1369749906.0
sS'i:\\program files\\marmalade\\6.3\\s3e\\makefile_builder\\templates\\win32_vcproj.pyc'
p192
F1369762922.0
sS'i:\\program files\\marmalade\\6.3\\s3e\\makefile_builder\\plugins\\osx_scons.pyc'
p193
F1369762920.0
sS'i:\\program files\\marmalade\\6.3\\s3e\\makefile_builder\\plugins\\Emitter.pyc'
p194
F1369762920.0
sS'i:\\program files\\marmalade\\6.3\\s3e\\makefile_builder\\deployment.pyc'
p195
F1369762920.0
sS'i:\\program files\\marmalade\\6.3\\s3e\\makefile_builder\\plugins\\win32_vc6.pyc'
p196
F1369762920.0
sS'i:\\program files\\marmalade\\6.3\\s3e\\makefile_builder\\plugins\\XcodeEmitter.pyc'
p197
F1370640446.34375
sS'i:\\program files\\marmalade\\6.3\\s3e\\makefile_builder\\plugins\\xcode4_schememanagement.py'
p198
F1369749906.0
sS'i:\\program files\\marmalade\\6.3\\s3e\\makefile_builder\\plugins\\s3e_xcode.py'
p199
F1369749906.0
sS'i:\\program files\\marmalade\\6.3\\s3e\\makefile_builder\\templates\\wp8_csproj_user.pyc'
p200
F1369762922.0
sS'i:\\program files\\marmalade\\6.3\\s3e\\makefile_builder\\mkb_option.pyc'
p201
F1369762920.0
sS'i:\\program files\\marmalade\\6.3\\s3e\\makefile_builder\\templates\\win32_vcxproj_filters.pyc'
p202
F1369762922.0
sS'i:\\program files\\marmalade\\6.3\\s3e\\makefile_builder\\plugins\\VisualStudioEmitter.pyc'
p203
F1369762920.0
sS'i:\\program files\\marmalade\\6.3\\s3e\\makefile_builder\\plugins\\s3e_qmake.py'
p204
F1369749906.0
sS'i:\\program files\\marmalade\\6.3\\s3e\\makefile_builder\\extensions\\make_dist.py'
p205
F1369749904.0
sccopy_reg
_reconstructor
p206
(cmkb_main
MkbFile
p207
c__builtin__
object
p208
Ntp209
Rp210
(dp211
g3
(lp212
sS'target_name'
p213
S'i:/Program Files/Marmalade/6.3/examples/EDK/Cursor/lib/win32/Cursor.dll'
p214
sS'current_file'
p215
g88
sS'package_path'
p216
(lp217
sS'post_build'
p218
(lp219
sS'librarys'
p220
(lp221
g206
(cmkb_main
Library
p222
g208
Ntp223
Rp224
(dp225
S'name'
p226
S'edk.lib'
p227
sS'expand_name'
p228
I01
sS'include_spec_rvct_objs'
p229
(lp230
sS'include_all_objs'
p231
NsS'share_arm'
p232
NsS'arch'
p233
NsS'nodebug'
p234
I00
sg23
Nsbag206
(g222
g208
Ntp235
Rp236
(dp237
g226
S'User32.lib'
p238
sg228
I00
sg229
g230
sg231
Nsg232
Nsg233
Nsg234
I00
sg23
Nsbag206
(g222
g208
Ntp239
Rp240
(dp241
g226
S'Gdi32.lib'
p242
sg228
I00
sg229
g230
sg231
Nsg232
Nsg233
Nsg234
I00
sg23
NsbasS'library_paths'
p243
(lp244
g206
(cmkb_main
LibraryPath
p245
g208
Ntp246
Rp247
(dp248
S'expand_path'
p249
I01
sS'add_cpu_variant'
p250
I00
sg226
S'i:/program files/marmalade/6.3/s3e/edk/lib/win32'
p251
sbasS'macros'
p252
(dp253
S'IW_MKF_CURSOR_BUILD'
p254
NsS'IW_TRACE_CHANNEL_CURSOR'
p255
S'1'
p256
sS'IW_ASSERTION_CHANNEL_CURSOR'
p257
g256
sS'_DEBUG'
p258
NsS'IW_TRACE_CHANNEL_CURSOR_VERBOSE'
p259
S'2'
p260
sS'I3D_PLATFORM_WIN32'
p261
NsS'NDEBUG'
p262
NsS'IW_SDK'
p263
NsS'IW_USE_ASSERTIONS'
p264
NsS'I3D_OS_WINDOWS'
p265
NsS'WIN32'
p266
NsS'S3E_BUILD_EXT'
p267
NsS'I3D_ARCH_X86'
p268
NsS'S3E_EXT_CURSOR'
p269
NsS'IW_MKF_EDK'
p270
NsS'IW_PLATFORM_WIN32'
p271
NsS'IW_DEBUG'
p272
NsS'IW_USE_TRACING'
p273
NsS'_WINDOWS'
p274
NssS'done_warnings'
p275
(dp276
sS'subprojects'
p277
(dp278
g117
S'i:\\program files\\marmalade\\6.3/s3e/edk'
p279
sg116
S'Cursor_build'
p280
ssS'deployments'
p281
(dp282
S'Default'
p283
g206
(cdeployment
Deployment
p284
g208
Ntp285
Rp286
(dp287
S'got_version'
p288
I0
sS'assets'
p289
g283
sS'mkb'
p290
g210
sS'target'
p291
Nsg233
(lp292
sS'options'
p293
(dp294
S'iphone-link-lib'
p295
(lp296
sS'game-icf'
p297
NsS'symbian-run-on-install'
p298
NsS'iphone-icon-high-res'
p299
NsS'win32-pref-windowposy'
p300
NsS'win32-pref-windowposx'
p301
NsS'bada-appsecret'
p302
NsS'roku-requires-audiometadata'
p303
NsS'playbook-author'
p304
NsS'winmobile-icon32'
p305
NsS'linux-ext-lib'
p306
(lp307
sS'target-folder'
p308
NsS'iphone-splashscreen-landscape'
p309
NsS'wp8-exclude-720p'
p310
NsS'psp-discversion'
p311
NsS'lgtv-use-drm'
p312
NsS'nds-bannertitle-sp'
p313
NsS'symbian-platsecflags'
p314
NsS'psp-producer'
p315
NsS'blackberry-playbook-icon'
p316
NsS'iphone-icon-ipad-search-high-res'
p317
NsS'iphone-provisioning-profile'
p318
NsS'copyright'
p319
NsS'android-extra-application-manifest'
p320
(lp321
sS'winmobile-png45'
p322
NsS'iphone-link-libdir'
p323
(lp324
sS'symbian-cert'
p325
NsS'nds-bannertitle-hn'
p326
NsS'brew-depends'
p327
NsS'wp8-author'
p328
NsS'winmobile-nouninstall'
p329
NsS'android-icon-hdpi'
p330
NsS'iphone-ipad-only'
p331
NsS'iphone-splash-full-orient'
p332
NsS'wp8-tile-fliptemplate-supports-large'
p333
NsS'iphone-bundle-url-name'
p334
NsS'wp8-tile-fliptemplate-large-front-image'
p335
NsS'android-aliasname'
p336
NsS'iphone-splash-retina-generate'
p337
NsS'psp-dlgmanual'
p338
NsS'iphone-backgroundmode-audio'
p339
NsS'android-pkgname'
p340
NsS'webos-memory'
p341
NsS'brew-uid'
p342
NsS'android-keypass'
p343
NsS'symbian-locationsupport'
p344
NsS'wp8-tile-fliptemplate-large-back-content'
p345
NsS'iphone-signing-host'
p346
NsS'nds-bannertitle-jp'
p347
NsS'name'
p348
NsS'iphone-link-libdirs'
p349
(lp350
sS'osx-info-plist'
p351
NsS'symbian-icon1-format'
p352
NsS'uiq3-uid'
p353
NsS'psp-dlgcontentid'
p354
NsS'roku-splash-screen-sd'
p355
NsS'auto-derbh'
p356
NsS'bada-use-partner-privileges'
p357
NsS'nds-bannertitle-it'
p358
NsS'roku-icon-side-sd'
p359
NsS'blackberry-authorid'
p360
NsS'nds-publicsavedatasize'
p361
NsS'splashscreen'
p362
NsS'brew-mif'
p363
NsS'symbian-icon2-format'
p364
NsS'long-caption'
p365
NsS'iphone-icon-settings-high-res'
p366
NsS'uiq3-icon1-mask'
p367
NsS'iphone-development-cert'
p368
NsS'winmobile-icon16'
p369
NsS's3e-compression'
p370
NsS'wp8-description'
p371
NsS'iphone-link-opts'
p372
(lp373
sS'wp8-tile-fliptemplate-back-content'
p374
NsS'iphone-region'
p375
NsS'uiq3-icon3-mask'
p376
NsS'winmobile-start-menu-folder'
p377
NsS'roku-splash-min-time'
p378
NsS'brew-encoding'
p379
NsS'roku-requires-bluetooth'
p380
NsS'symbian-icon1'
p381
NsS'symbian-icon2'
p382
NsS'psp-parentallevel'
p383
NsS'wp8-tile-fliptemplate-medium-front-image'
p384
NsS'wp8-tile-fliptemplate-large-back-image'
p385
NsS'version'
p386
NsS'caption'
p387
NsS'bada-manifest'
p388
NsS'provider'
p389
NsS'iphone-prerendered-icon'
p390
NsS'iphone-appid'
p391
NsS'playbook-keystore'
p392
NsS'nds-initialcode'
p393
NsS'priv-sign-key'
p394
NsS'android-external-jars'
p395
(lp396
sS'blackberry-cskpass'
p397
NsS'iphone-persistent-wifi'
p398
NsS'symbian7-uid'
p399
NsS'winmobile-setup-dll'
p400
NsS'wp8-exclude-wvga'
p401
NsS'symbian-osexecsupport'
p402
NsS'android-install-location'
p403
NsS'olddeploytoolstyle'
p404
NsS'nds-privatesavedatasize'
p405
NsS'symbian9-uid'
p406
NsS'nds-bannertitle-cn'
p407
NsS'winmobile-trace-file'
p408
NsS'roku-splash-color'
p409
NsS'roku-icon-focus-hd'
p410
NsS'android-icon-ldpi'
p411
NsS'iphone-distribution-key'
p412
NsS'networking'
p413
NsS'winmobile-install-folder'
p414
NsS'android-external-res'
p415
(lp416
sS'winmobile-ampd-part-number'
p417
NsS'android-icon-gallery'
p418
NsS'bada-signed'
p419
NsS'android-supports-gl-texture'
p420
(lp421
sS'iphone-apple-wwdr-cert'
p422
NsS'psp-snd0'
p423
NsS'iphone-extra-sections'
p424
NsS'blackberry-keystore'
p425
NsS'iphone-nosign'
p426
NsS'brew-priviledges'
p427
NsS'psp-icon1'
p428
NsS'iphone-icon-large'
p429
NsS'android-storepass'
p430
NsS'playbook-storepass'
p431
NsS'iphone-info-plist'
p432
NsS'wp8-product-id'
p433
NsS'android-extra-manifest'
p434
(lp435
sS'wp8-exclude-low-mem'
p436
NsS'android-custom-activity'
p437
NsS'version-minor'
p438
NsS'iphone-icon-ipad'
p439
NsS'bada-appid'
p440
NsS'psp-appversion'
p441
NsS'roku-hidden'
p442
NsS'psp-copyright'
p443
NsS'symbian-maxheapsize'
p444
NsS'embed-icf'
p445
NsS'psp-titlename'
p446
NsS'symbian-icon1-mask'
p447
NsS'nds-makercode'
p448
NsS'symbian8-uid'
p449
NsS'webos-appinfo'
p450
NsS'symbian-cert-key'
p451
NsS'android-icon'
p452
NsS'webos-appid'
p453
NsS'android-icon-nonstandard'
p454
NsS'roku-icon-side-hd'
p455
NsS'iphone-icon-settings'
p456
NsS'wp8-tile-fliptemplate-medium-back-image'
p457
NsS'iphone-distribution-cert'
p458
NsS'osx-icon'
p459
NsS'nds-titlename'
p460
NsS'splashscreen-auto-onblack'
p461
NsS'manufacturer'
p462
NsS'nds-romheadertemplate'
p463
NsS'webos-icon'
p464
NsS'nds-bannertitle-en'
p465
NsS'win32-ext-dll'
p466
(lp467
sS'psp-dlgicon0'
p468
NsS'iphone-development-key'
p469
NsS'psp-discid'
p470
NsS'winmobile-icon48'
p471
NsS'android-manifest'
p472
NsS'playbook-cskpass'
p473
NsS'android-so'
p474
(lp475
sS'wp8-higher-mem'
p476
NsS'bada-splash'
p477
NsS'version-revision'
p478
NsS'roku-icon-focus-sd'
p479
NsS'android-icon-mdpi'
p480
NsS'android-keystore'
p481
NsS'osx-ext-dll'
p482
(lp483
sS'version-string'
p484
NsS'winmobile-png90'
p485
NsS'roku-splash-screen-hd'
p486
NsS'iphone-icon-ipad-high-res'
p487
NsS'iphone-disable-ipad'
p488
NsS'uiq3-icon1-format'
p489
NsS'iphone-bundle-url-schemes'
p490
NsS'nds-icon'
p491
NsS'roku-screensaver-private'
p492
NsS'wp8-tile-fliptemplate-small-image'
p493
NsS'winmobile-png60'
p494
NsS'playbook-authorid'
p495
NsS'iphone-icon-ipad-search'
p496
NsS'android_extra_strings'
p497
NsS'playbook-icon'
p498
NsS'uid'
p499
NsS'icon'
p500
NsS'iphone-signing-identity'
p501
NsS'brew-icon-medium'
p502
NsS'roku-persist-quota'
p503
NsS'winmobile-icon64'
p504
NsS'blackberry-phone-icon'
p505
NsS'iphone-enable-4inch-retina'
p506
NsS'pkguid-as-uid'
p507
NsS'symbian-icon1-mask-black'
p508
NsS'uiq3-icon2'
p509
NsS'uiq3-icon2-format'
p510
NsS'pub-sign-key'
p511
NsS'nds-bannertitle-fr'
p512
NsS'win32-pref-windowtitle'
p513
NsS'symbian-disable-ecompxl'
p514
NsS'psp-dlgprotectdocument'
p515
NsS'symbian-soundrecordsupport'
p516
NsS'splashscreen-use-all'
p517
NsS'roku-screensaver-title'
p518
NsS'brew-clsid'
p519
NsS'wp8-genre-isgame'
p520
NsS'brew-icon-small'
p521
NsS'psp-dlgpic2'
p522
NsS'bada-icon'
p523
NsS'psp-dlgpic0'
p524
NsS'lgtv_l9-use-drm'
p525
NsS'psp-pic0'
p526
NsS'psp-pic1'
p527
NsS'iphone-icon'
p528
NsS'psp-icon0'
p529
NsS'blackberry-permissions-access-shared'
p530
NsS'uiq3-icon3-format'
p531
NsS'version-major'
p532
NsS'iphone_bundle_localisations'
p533
NsS'winmobile-icon'
p534
NsS'roku-requires-mkv'
p535
NsS'blackberry-author'
p536
NsS'symbian-keypwd'
p537
NsS'iphone-no-splash'
p538
NsS'playbook-access-shared'
p539
NsS'psp-dlghealthwarning'
p540
NsS'iphone-link-libs'
p541
(lp542
sS'wp8-custom-manifest'
p543
NsS'iphone-splash'
p544
NsS'nds-bannertitle-ge'
p545
NsS'android_icon_gallery'
p546
NsS'brew-icon-large'
p547
NsS'iphone-app-fonts'
p548
NsS'symbian-icon2-mask'
p549
NsS'iphone-sign-for-distribution'
p550
NsS'android-unsigned'
p551
NsS'arch'
p552
NsS'uiq3-icon3'
p553
NsS'wp8-publisher-id'
p554
NsS'uiq3-icon1'
p555
NsS'itunes-artwork'
p556
NsS'android-x86'
p557
NsS'win32-icon'
p558
NsS'assets'
p559
NsS'symbian-key'
p560
NsS'app-icf'
p561
NsS'blackberry-storepass'
p562
NsS'winmobile-cab-compress'
p563
NsS'wp8-tile-fliptemplate-back-title'
p564
NsS'wp8-custom-manifest-fill'
p565
NsS'wp8-exclude-wxga'
p566
NsS'brew-compress-loader'
p567
NsS'wp8-tile-fliptemplate-title'
p568
NsS'uiq3-icon2-mask'
p569
NsS'symbian-icon2-mask-black'
p570
NsS'symbian-icon-svg'
p571
NsS'android-extra-strings'
p572
NsS'iphone-splashscreen-portrait'
p573
NsS'iphone-bundle-localisations'
p574
Nssg226
g283
sbssS'platform'
p575
S'WIN32'
p576
sg45
S'1.0'
p577
sS'arcade_platform'
p578
g2
sS'extensions'
p579
(dp580
sS'source_groups_tree'
p581
(dp582
S'edk'
p583
(dp584
S'h'
p585
(dp586
S'i:/program files/marmalade/6.3/s3e/edk/h/s3eEdk_iphone.h'
p587
(lp588
I1
a(dp589
asS'i:/program files/marmalade/6.3/s3e/edk/h/s3eEdk.h'
p590
(lp591
I1
ag589
asS'i:/program files/marmalade/6.3/s3e/edk/h/s3eEdk_windows.h'
p592
(lp593
I1
ag589
asS'i:/program files/marmalade/6.3/s3e/edk/h/s3eEdkError.h'
p594
(lp595
I1
ag589
asS'i:/program files/marmalade/6.3/s3e/edk/h/s3eEdk_android.h'
p596
(lp597
I1
ag589
assS'S3E API'
p598
(dp599
S'i:/program files/marmalade/6.3/s3e/h/MarmaladeVersion.h'
p600
(lp601
I1
ag589
asS'i:/program files/marmalade/6.3/s3e/h/s3eTimer.h'
p602
(lp603
I1
ag589
asS'i:/program files/marmalade/6.3/s3e/h/s3eSurface.h'
p604
(lp605
I1
ag589
asS'i:/program files/marmalade/6.3/s3e/h/s3eDebug.h'
p606
(lp607
I1
ag589
asS'i:/program files/marmalade/6.3/s3e/h/s3eLocation.h'
p608
(lp609
I1
ag589
asS'i:/program files/marmalade/6.3/s3e/h/s3eVibra.h'
p610
(lp611
I1
ag589
asS'i:/program files/marmalade/6.3/s3e/h/s3eAccelerometer.h'
p612
(lp613
I1
ag589
asS'i:/program files/marmalade/6.3/s3e/h/s3eMemory.h'
p614
(lp615
I1
ag589
asS'i:/program files/marmalade/6.3/s3e/h/s3eSoundRecord.h'
p616
(lp617
I1
ag589
asS'i:/program files/marmalade/6.3/s3e/h/s3eCompression.h'
p618
(lp619
I1
ag589
asS'i:/program files/marmalade/6.3/s3e/h/s3eCrypto.h'
p620
(lp621
I1
ag589
asS'i:/program files/marmalade/6.3/s3e/h/s3eDevice.h'
p622
(lp623
I1
ag589
asS'i:/program files/marmalade/6.3/s3e/h/s3eAudio.h'
p624
(lp625
I1
ag589
asS'i:/program files/marmalade/6.3/s3e/h/s3eThread.h'
p626
(lp627
I1
ag589
asS'i:/program files/marmalade/6.3/s3e/h/s3eSocket.h'
p628
(lp629
I1
ag589
asS'i:/program files/marmalade/6.3/s3e/h/s3eLicense.h'
p630
(lp631
I1
ag589
asS'i:/program files/marmalade/6.3/s3e/h/s3eVersion.h'
p632
(lp633
I1
ag589
asS'i:/program files/marmalade/6.3/s3e/h/s3eSecureStorage.h'
p634
(lp635
I1
ag589
asS'i:/program files/marmalade/6.3/s3e/h/s3eCamera.h'
p636
(lp637
I1
ag589
asS'i:/program files/marmalade/6.3/s3e/h/s3eExt.h'
p638
(lp639
I1
ag589
asS'i:/program files/marmalade/6.3/s3e/h/s3ePointer.h'
p640
(lp641
I1
ag589
asS'i:/program files/marmalade/6.3/s3e/h/s3eFile.h'
p642
(lp643
I1
ag589
asS'i:/program files/marmalade/6.3/s3e/h/s3e.h'
p644
(lp645
I1
ag589
asS'i:/program files/marmalade/6.3/s3e/h/s3eKeyboard.h'
p646
(lp647
I1
ag589
asS'i:/program files/marmalade/6.3/s3e/h/s3eSound.h'
p648
(lp649
I1
ag589
asS'i:/program files/marmalade/6.3/s3e/h/s3eContacts.h'
p650
(lp651
I1
ag589
asS'i:/program files/marmalade/6.3/s3e/h/s3eHash.h'
p652
(lp653
I1
ag589
asS'i:/program files/marmalade/6.3/s3e/h/s3eConfig.h'
p654
(lp655
I1
ag589
asS'i:/program files/marmalade/6.3/s3e/h/s3eCompass.h'
p656
(lp657
I1
ag589
asS'i:/program files/marmalade/6.3/s3e/h/s3eGL.h'
p658
(lp659
I1
ag589
asS'i:/program files/marmalade/6.3/s3e/h/s3eVideo.h'
p660
(lp661
I1
ag589
asS'i:/program files/marmalade/6.3/s3e/h/s3eClipboard.h'
p662
(lp663
I1
ag589
asS'i:/program files/marmalade/6.3/s3e/h/s3eTypes.h'
p664
(lp665
I1
ag589
asS'i:/program files/marmalade/6.3/s3e/h/AirplayVersion.h'
p666
(lp667
I1
ag589
assS'i:/program files/marmalade/6.3/s3e/edk/edk.mkf'
p668
(lp669
I1
a(dp670
assS'Extensions'
p671
(dp672
S'Cursor'
p673
(dp674
S'i:/program files/marmalade/6.3/examples/edk/cursor/cursor_build.mkf'
p675
(lp676
I1
a(dp677
asS'docs'
p678
(dp679
S'i:/program files/marmalade/6.3/examples/edk/cursor/interface/Cursor.defines.txt'
p680
(lp681
I1
a(dp682
assS'source'
p683
(dp684
S'i:/program files/marmalade/6.3/examples/edk/cursor/source/generic/Cursor.cpp'
p685
(lp686
I1
ag682
asS'i:/program files/marmalade/6.3/examples/edk/cursor/source/windows/Cursor_platform.cpp'
p687
(lp688
I1
ag682
asS'i:/program files/marmalade/6.3/examples/edk/cursor/source/generic/Cursor_register.cpp'
p689
(lp690
I1
ag682
assS'i:/program files/marmalade/6.3/examples/edk/cursor/Cursor.s4e'
p691
(lp692
I1
ag682
asg585
(dp693
S'i:/program files/marmalade/6.3/examples/edk/cursor/source/h/Cursor_autodefs.h'
p694
(lp695
I1
ag682
asS'i:/program files/marmalade/6.3/examples/edk/cursor/source/h/Cursor_internal.h'
p696
(lp697
I1
ag682
assS'i:/program files/marmalade/6.3/s3e/edk/builder/edk_build.py'
p698
(lp699
I1
a(lp700
assssS'files'
p701
(dp702
S's3eDevice.h'
p703
g206
(cmkb_main
File
p704
g208
Ntp705
Rp706
(dp707
S'flags'
p708
g589
sS'group'
p709
(lp710
g583
ag598
asg226
g622
sbsS's3eThread.h'
p711
g206
(g704
g208
Ntp712
Rp713
(dp714
g708
g589
sg709
g710
sg226
g626
sbsS's3eCompass.h'
p715
g206
(g704
g208
Ntp716
Rp717
(dp718
g708
g589
sg709
g710
sg226
g656
sbsS's3eCompression.h'
p719
g206
(g704
g208
Ntp720
Rp721
(dp722
g708
g589
sg709
g710
sg226
g618
sbsS's3eEdk_iphone.h'
p723
g206
(g704
g208
Ntp724
Rp725
(dp726
g708
g589
sg709
(lp727
g583
ag585
asg226
g587
sbsS'AirplayVersion.h'
p728
g206
(g704
g208
Ntp729
Rp730
(dp731
g708
g589
sg709
g710
sg226
g666
sbsS's3eTimer.h'
p732
g206
(g704
g208
Ntp733
Rp734
(dp735
g708
g589
sg709
g710
sg226
g602
sbsS's3e.h'
p736
g206
(g704
g208
Ntp737
Rp738
(dp739
g708
g589
sg709
g710
sg226
g644
sbsS's3eSoundRecord.h'
p740
g206
(g704
g208
Ntp741
Rp742
(dp743
g708
g589
sg709
g710
sg226
g616
sbsS's3eConfig.h'
p744
g206
(g704
g208
Ntp745
Rp746
(dp747
g708
g589
sg709
g710
sg226
g654
sbsS's3eVibra.h'
p748
g206
(g704
g208
Ntp749
Rp750
(dp751
g708
g589
sg709
g710
sg226
g610
sbsS's3eExt.h'
p752
g206
(g704
g208
Ntp753
Rp754
(dp755
g708
g589
sg709
g710
sg226
g638
sbsS's3eVersion.h'
p756
g206
(g704
g208
Ntp757
Rp758
(dp759
g708
g589
sg709
g710
sg226
g632
sbsS'Cursor.s4e'
p760
g206
(g704
g208
Ntp761
Rp762
(dp763
g708
g682
sg709
(lp764
g671
ag673
asg226
g691
sbsS'MarmaladeVersion.h'
p765
g206
(g704
g208
Ntp766
Rp767
(dp768
g708
g589
sg709
g710
sg226
g600
sbsS's3eSound.h'
p769
g206
(g704
g208
Ntp770
Rp771
(dp772
g708
g589
sg709
g710
sg226
g648
sbsS's3eAudio.h'
p773
g206
(g704
g208
Ntp774
Rp775
(dp776
g708
g589
sg709
g710
sg226
g624
sbsS'Cursor_platform.cpp'
p777
g206
(g704
g208
Ntp778
Rp779
(dp780
g708
g682
sg709
(lp781
g671
ag673
ag683
asg226
g687
sbsS'Cursor_autodefs.h'
p782
g206
(g704
g208
Ntp783
Rp784
(dp785
g708
g682
sg709
(lp786
g671
ag673
ag585
asg226
g694
sbsS's3eEdk_android.h'
p787
g206
(g704
g208
Ntp788
Rp789
(dp790
g708
g589
sg709
g727
sg226
g596
sbsS's3ePointer.h'
p791
g206
(g704
g208
Ntp792
Rp793
(dp794
g708
g589
sg709
g710
sg226
g640
sbsS's3eCamera.h'
p795
g206
(g704
g208
Ntp796
Rp797
(dp798
g708
g589
sg709
g710
sg226
g636
sbsS's3eTypes.h'
p799
g206
(g704
g208
Ntp800
Rp801
(dp802
g708
g589
sg709
g710
sg226
g664
sbsS'cursor_build.mkf'
p803
g206
(g704
g208
Ntp804
Rp805
(dp806
g708
g677
sg709
(lp807
g671
ag673
asg226
g675
sbsS's3eEdk.h'
p808
g206
(g704
g208
Ntp809
Rp810
(dp811
g708
g589
sg709
g727
sg226
g590
sbsS's3eSurface.h'
p812
g206
(g704
g208
Ntp813
Rp814
(dp815
g708
g589
sg709
g710
sg226
g604
sbsS's3eAccelerometer.h'
p816
g206
(g704
g208
Ntp817
Rp818
(dp819
g708
g589
sg709
g710
sg226
g612
sbsS'Cursor.defines.txt'
p820
g206
(g704
g208
Ntp821
Rp822
(dp823
g708
g682
sg709
(lp824
g671
ag673
ag678
asg226
g680
sbsS's3eMemory.h'
p825
g206
(g704
g208
Ntp826
Rp827
(dp828
g708
g589
sg709
g710
sg226
g614
sbsS'Cursor_register.cpp'
p829
g206
(g704
g208
Ntp830
Rp831
(dp832
g708
g682
sg709
g781
sg226
g689
sbsS's3eCrypto.h'
p833
g206
(g704
g208
Ntp834
Rp835
(dp836
g708
g589
sg709
g710
sg226
g620
sbsS's3eKeyboard.h'
p837
g206
(g704
g208
Ntp838
Rp839
(dp840
g708
g589
sg709
g710
sg226
g646
sbsS'Cursor_internal.h'
p841
g206
(g704
g208
Ntp842
Rp843
(dp844
g708
g682
sg709
g786
sg226
g696
sbsS's3eFile.h'
p845
g206
(g704
g208
Ntp846
Rp847
(dp848
g708
g589
sg709
g710
sg226
g642
sbsS's3eEdkError.h'
p849
g206
(g704
g208
Ntp850
Rp851
(dp852
g708
g589
sg709
g727
sg226
g594
sbsS'Cursor.cpp'
p853
g206
(g704
g208
Ntp854
Rp855
(dp856
g708
g682
sg709
g781
sg226
g685
sbsS's3eSecureStorage.h'
p857
g206
(g704
g208
Ntp858
Rp859
(dp860
g708
g589
sg709
g710
sg226
g634
sbsS's3eLocation.h'
p861
g206
(g704
g208
Ntp862
Rp863
(dp864
g708
g589
sg709
g710
sg226
g608
sbsS'edk_build.py'
p865
g206
(g704
g208
Ntp866
Rp867
(dp868
g708
g700
sg709
g807
sg226
g698
sbsS's3eContacts.h'
p869
g206
(g704
g208
Ntp870
Rp871
(dp872
g708
g589
sg709
g710
sg226
g650
sbsS's3eHash.h'
p873
g206
(g704
g208
Ntp874
Rp875
(dp876
g708
g589
sg709
g710
sg226
g652
sbsS's3eClipboard.h'
p877
g206
(g704
g208
Ntp878
Rp879
(dp880
g708
g589
sg709
g710
sg226
g662
sbsS's3eGL.h'
p881
g206
(g704
g208
Ntp882
Rp883
(dp884
g708
g589
sg709
g710
sg226
g658
sbsS's3eEdk_windows.h'
p885
g206
(g704
g208
Ntp886
Rp887
(dp888
g708
g589
sg709
g727
sg226
g592
sbsS's3eDebug.h'
p889
g206
(g704
g208
Ntp890
Rp891
(dp892
g708
g589
sg709
g710
sg226
g606
sbsS'edk.mkf'
p893
g206
(g704
g208
Ntp894
Rp895
(dp896
g708
g670
sg709
(lp897
g583
asg226
g668
sbsS's3eLicense.h'
p898
g206
(g704
g208
Ntp899
Rp900
(dp901
g708
g589
sg709
g710
sg226
g630
sbsS's3eVideo.h'
p902
g206
(g704
g208
Ntp903
Rp904
(dp905
g708
g589
sg709
g710
sg226
g660
sbsS's3eSocket.h'
p906
g206
(g704
g208
Ntp907
Rp908
(dp909
g708
g589
sg709
g710
sg226
g628
sbssS'tests'
p910
(lp911
sS'project_name'
p912
S'Cursor_windows'
p913
sS'root_file'
p914
g88
sS'current_root'
p915
S'i:/Program Files/Marmalade/6.3/examples/EDK/Cursor'
p916
sS'dependencies'
p917
(lp918
sS'include_paths'
p919
(lp920
S'i:/program files/marmalade/6.3/examples/edk/cursor/source/h'
p921
aS'i:/program files/marmalade/6.3/examples/edk/cursor/h'
p922
aS'i:/program files/marmalade/6.3/s3e/edk/h'
p923
aS'i:/program files/marmalade/6.3/s3e/h'
p924
aS'i:/program files/marmalade/6.3/s3e/h/ext'
p925
aS'i:/program files/marmalade/6.3/modules/iwutil/h'
p926
aS'i:/program files/marmalade/6.3/modules/iwcore/h'
p927
asS'weak_frameworks'
p928
(lp929
sS'extprojects'
p930
(dp931
sg289
(dp932
g283
(lp933
ssS'macro_types'
p934
(dp935
g254
I0
sg255
I0
sg257
I0
sg258
I1
sg259
I0
sg261
I0
sg262
I2
sg263
I0
sg264
I1
sg265
I0
sg266
I0
sg267
I0
sg268
I0
sg269
I0
sg270
I0
sg271
I0
sg272
I01
sg273
I1
sg274
I0
ssS'commands'
p936
(lp937
sg291
(g576
S'VC10'
p938
S'X86'
p939
tp940
sS'subprojectOptions'
p941
(dp942
g295
(lp943
sg297
Nsg299
Nsg300
Nsg301
Nsg302
Nsg303
Nsg304
Nsg305
Nsg306
(lp944
sg308
Nsg439
Nsg312
Nsg313
Nsg314
Nsg315
Nsg316
Nsg317
Nsg318
Nsg319
Nsg322
Nsg323
(lp945
sg560
Nsg526
Nsg326
Nsg327
Nsg328
Nsg522
Nsg329
Nsg330
Nsg331
Nsg332
Nsg333
Nsg334
Nsg335
Nsg336
Nsg530
Nsg338
Nsg339
Nsg521
Nsg340
Nsg341
Nsg342
Nsg343
Nsg344
Nsg346
Nsg392
Nsg348
Nsg442
Nsg351
Nsg352
Nsg354
Nsg355
Nsg356
Nsg357
Nsg358
Nsg359
Nsg360
Nsg361
Nsg362
Nsg363
Nsg551
Nsg443
Nsg364
Nsg366
Nsg367
Nsg369
Nsg370
Nsg371
Nsg372
(lp946
sg374
Nsg375
Nsg376
Nsg377
Nsg378
Nsg379
Nsg380
Nsg381
Nsg382
Nsg448
Nsg384
Nsg386
Nsg388
Nsg389
Nsg390
Nsg391
Nsg347
Nsg393
Nsg449
Nsg402
Nsg397
Nsg398
Nsg399
Nsg400
Nsg401
Nsg395
(lp947
sg403
Nsg545
Nsg405
Nsg406
Nsg407
Nsg408
Nsg409
Nsg410
Nsg411
Nsg412
Nsg451
Nsg414
Nsg552
Nsg415
(lp948
sg452
Nsg418
Nsg546
Nsg420
(lp949
sg422
Nsg423
Nsg424
Nsg425
Nsg426
Nsg387
Nsg429
Nsg430
Nsg431
Nsg432
Nsg433
Nsg434
(lp950
sg436
Nsg437
Nsg438
Nsg573
Nsg311
Nsg440
Nsg441
Nsg544
Nsg349
(lp951
sg527
Nsg309
Nsg444
Nsg445
Nsg446
Nsg447
Nsg383
Nsg394
Nsg450
Nsg413
Nsg417
Nsg453
Nsg454
Nsg455
Nsg456
Nsg553
Nsg458
Nsg459
Nsg460
Nsg461
Nsg462
Nsg463
Nsg464
Nsg465
Nsg466
(lp952
sg468
Nsg469
Nsg470
Nsg471
Nsg472
Nsg473
Nsg474
(lp953
sg476
Nsg477
Nsg478
Nsg479
Nsg480
Nsg481
Nsg482
(lp954
sg484
Nsg485
Nsg486
Nsg487
Nsg488
Nsg489
Nsg490
Nsg491
Nsg492
Nsg505
Nsg368
Nsg507
Nsg496
Nsg497
Nsg498
Nsg499
Nsg508
Nsg502
Nsg503
Nsg570
Nsg504
Nsg320
(lp955
sg506
Nsg495
Nsg555
Nsg501
Nsg509
Nsg519
Nsg510
Nsg567
Nsg512
Nsg513
Nsg514
Nsg515
Nsg516
Nsg517
Nsg518
Nsg427
Nsg520
Nsg353
Nsg337
Nsg523
Nsg524
Nsg525
Nsg325
Nsg494
Nsg528
Nsg529
Nsg428
Nsg531
Nsg532
Nsg533
Nsg534
Nsg535
Nsg536
Nsg537
Nsg538
Nsg539
Nsg540
Nsg541
(lp956
sg543
Nsg345
Nsg404
Nsg419
Nsg547
Nsg548
Nsg549
Nsg550
Nsg365
Nsg310
Nsg457
Nsg554
Nsg500
Nsg556
Nsg557
Nsg558
Nsg559
Nsg385
Nsg561
Nsg562
Nsg563
Nsg564
Nsg565
Nsg566
Nsg511
Nsg568
Nsg569
Nsg493
Nsg571
Nsg572
Nsg298
Nsg574
NssS'build_libs'
p957
(dp958
sS'frameworks'
p959
(lp960
sS'environ'
p961
(dp962
S'EDK_BUILDER'
p963
S'i:\\program files\\marmalade\\6.3/s3e/edk/builder'
p964
ssS'target_name_debug'
p965
S'i:/Program Files/Marmalade/6.3/examples/EDK/Cursor/lib/win32/Cursor_d.dll'
p966
sS'builders'
p967
(dp968
S'.S'
p969
(dp970
S'rvct'
p971
(lp972
S'.obj'
p973
aS'echo ARM Assembling(RVCT) ${SOURCE}...'
p974
aS'i:/program files/marmalade/6.3/s3e\\rvct\\bin\\armasm -o ${TARGET} ${SOURCE}'
p975
asS'gcc'
p976
(lp977
g973
aS'echo ARM Assembling(GCC) ${SOURCE}...'
p978
aS'i:/program files/marmalade/6.3/s3e\\gcc\\bin\\arm-none-eabi-gcc -c -o ${TARGET} ${SOURCE}'
p979
asS'ppu'
p980
(lp981
S'.a'
p982
aS'echo PPU Assembling(SNC) ${SOURCE}...'
p983
aS'i:/program files/marmalade/6.3/s3e\\rvct\\bin\\armasm -o ${TARGET} ${SOURCE}'
p984
assS'.s'
p985
g970
ssg293
g0
sbtp986
.