(dp0
S'IW_MKF_CURSOR_BUILD'
p1
NsS'IW_TRACE_CHANNEL_CURSOR'
p2
S'1'
p3
sS'IW_ASSERTION_CHANNEL_CURSOR'
p4
g3
sS'_DEBUG'
p5
NsS'IW_TRACE_CHANNEL_CURSOR_VERBOSE'
p6
S'2'
p7
sS'I3D_PLATFORM_WIN32'
p8
NsS'NDEBUG'
p9
NsS'IW_SDK'
p10
NsS'IW_USE_ASSERTIONS'
p11
NsS'IW_USE_TRACING'
p12
NsS'WIN32'
p13
NsS'S3E_BUILD_EXT'
p14
NsS'I3D_ARCH_X86'
p15
NsS'S3E_EXT_CURSOR'
p16
NsS'IW_MKF_EDK'
p17
NsS'IW_PLATFORM_WIN32'
p18
NsS'IW_DEBUG'
p19
NsS'I3D_OS_WINDOWS'
p20
NsS'_WINDOWS'
p21
Ns.